target datalayout = "e-m:e-p270:32:32-p271:32:32-p272:64:64-i64:64-i128:128-f80:128-n8:16:32:64-S128"
target triple = "x86_64-unknown-linux-gnu"

%"class.sat::literal" = type { i32 }
%"class.sat::cut_simplifier" = type { ptr, %"struct.sat::cut_simplifier::stats", %"struct.sat::cut_simplifier::config", %"class.sat::aig_cuts", i32, %class.svector, ptr, %class.hashtable }
%"struct.sat::cut_simplifier::stats" = type { i32, i32, i32, i32, i32, i32, i32, i32, i32, i32, i32, i32, i32 }
%"struct.sat::cut_simplifier::config" = type { i8, i8, i8, i8, i8, i8, i8 }
%"class.sat::aig_cuts" = type { %class.random_gen, %"struct.sat::aig_cuts::config", %class.vector, %class.svector, %class.region, %"class.sat::cut_set", %"class.sat::cut_set", %"class.sat::cut_set", %class.vector.1, %class.svector.2, %class.svector.2, i32, i32, %class.svector.4, i32, %"class.std::function", %"class.std::function", %"class.std::function.6", %"class.std::function.6", %class.svector, [6 x ptr], [6 x i64], [6 x %"class.sat::literal"] }
%class.random_gen = type { i32 }
%"struct.sat::aig_cuts::config" = type <{ i32, i32, i32, i8, [3 x i8] }>
%class.vector = type { ptr }
%class.region = type { ptr, ptr, ptr, ptr, ptr }
%"class.sat::cut_set" = type { i32, ptr, i32, i32, ptr }
%class.vector.1 = type { ptr }
%class.svector.2 = type { %class.vector.3 }
%class.vector.3 = type { ptr }
%class.svector.4 = type { %class.vector.5 }
%class.vector.5 = type { ptr }
%"class.std::function" = type { %"class.std::_Function_base", ptr }
%"class.std::_Function_base" = type { %"union.std::_Any_data", ptr }
%"union.std::_Any_data" = type { %"union.std::_Nocopy_types" }
%"union.std::_Nocopy_types" = type { { i64, i64 } }
%"class.std::function.6" = type { %"class.std::_Function_base", ptr }
%class.svector = type { %class.vector.0 }
%class.vector.0 = type { ptr }
%class.hashtable = type { %class.core_hashtable.base, [4 x i8] }
%class.core_hashtable.base = type <{ ptr, i32, i32, i32 }>

@.str.14 = private unnamed_addr constant [12 x i8] c"sat-cut.eqs\00", align 1
@.str.15 = private unnamed_addr constant [13 x i8] c"sat-cut.cuts\00", align 1
@.str.16 = private unnamed_addr constant [13 x i8] c"sat-cut.ands\00", align 1
@.str.17 = private unnamed_addr constant [13 x i8] c"sat-cut.ites\00", align 1
@.str.18 = private unnamed_addr constant [13 x i8] c"sat-cut.xors\00", align 1
@.str.19 = private unnamed_addr constant [14 x i8] c"sat-cut.xands\00", align 1
@.str.20 = private unnamed_addr constant [14 x i8] c"sat-cut.xites\00", align 1
@.str.21 = private unnamed_addr constant [14 x i8] c"sat-cut.xxors\00", align 1
@.str.22 = private unnamed_addr constant [14 x i8] c"sat-cut.xluts\00", align 1
@.str.23 = private unnamed_addr constant [18 x i8] c"sat-cut.dc-reduce\00", align 1

; Function Attrs: mustprogress uwtable
define hidden void @_ZNK3sat14cut_simplifier18collect_statisticsER10statistics(ptr noundef nonnull align 8 dereferenceable(600) %this, ptr noundef nonnull align 8 dereferenceable(16) %st) #5 align 2 {
entry:
  %this.addr = alloca ptr, align 8
  %st.addr = alloca ptr, align 8
  store ptr %this, ptr %this.addr, align 8
  store ptr %st, ptr %st.addr, align 8
  %this1 = load ptr, ptr %this.addr, align 8
  %0 = load ptr, ptr %st.addr, align 8
  %m_stats = getelementptr inbounds %"class.sat::cut_simplifier", ptr %this1, i32 0, i32 1
  %m_num_eqs = getelementptr inbounds %"struct.sat::cut_simplifier::stats", ptr %m_stats, i32 0, i32 0
  %1 = load i32, ptr %m_num_eqs, align 8
  call void @_ZN10statistics6updateEPKcj(ptr noundef nonnull align 8 dereferenceable(16) %0, ptr noundef @.str.14, i32 noundef %1)
  %2 = load ptr, ptr %st.addr, align 8
  %m_stats2 = getelementptr inbounds %"class.sat::cut_simplifier", ptr %this1, i32 0, i32 1
  %m_num_cuts = getelementptr inbounds %"struct.sat::cut_simplifier::stats", ptr %m_stats2, i32 0, i32 2
  %3 = load i32, ptr %m_num_cuts, align 8
  call void @_ZN10statistics6updateEPKcj(ptr noundef nonnull align 8 dereferenceable(16) %2, ptr noundef @.str.15, i32 noundef %3)
  %4 = load ptr, ptr %st.addr, align 8
  %m_stats3 = getelementptr inbounds %"class.sat::cut_simplifier", ptr %this1, i32 0, i32 1
  %m_num_ands = getelementptr inbounds %"struct.sat::cut_simplifier::stats", ptr %m_stats3, i32 0, i32 4
  %5 = load i32, ptr %m_num_ands, align 8
  call void @_ZN10statistics6updateEPKcj(ptr noundef nonnull align 8 dereferenceable(16) %4, ptr noundef @.str.16, i32 noundef %5)
  %6 = load ptr, ptr %st.addr, align 8
  %m_stats4 = getelementptr inbounds %"class.sat::cut_simplifier", ptr %this1, i32 0, i32 1
  %m_num_ites = getelementptr inbounds %"struct.sat::cut_simplifier::stats", ptr %m_stats4, i32 0, i32 5
  %7 = load i32, ptr %m_num_ites, align 4
  call void @_ZN10statistics6updateEPKcj(ptr noundef nonnull align 8 dereferenceable(16) %6, ptr noundef @.str.17, i32 noundef %7)
  %8 = load ptr, ptr %st.addr, align 8
  %m_stats5 = getelementptr inbounds %"class.sat::cut_simplifier", ptr %this1, i32 0, i32 1
  %m_num_xors = getelementptr inbounds %"struct.sat::cut_simplifier::stats", ptr %m_stats5, i32 0, i32 3
  %9 = load i32, ptr %m_num_xors, align 4
  call void @_ZN10statistics6updateEPKcj(ptr noundef nonnull align 8 dereferenceable(16) %8, ptr noundef @.str.18, i32 noundef %9)
  %10 = load ptr, ptr %st.addr, align 8
  %m_stats6 = getelementptr inbounds %"class.sat::cut_simplifier", ptr %this1, i32 0, i32 1
  %m_xands = getelementptr inbounds %"struct.sat::cut_simplifier::stats", ptr %m_stats6, i32 0, i32 7
  %11 = load i32, ptr %m_xands, align 4
  call void @_ZN10statistics6updateEPKcj(ptr noundef nonnull align 8 dereferenceable(16) %10, ptr noundef @.str.19, i32 noundef %11)
  %12 = load ptr, ptr %st.addr, align 8
  %m_stats7 = getelementptr inbounds %"class.sat::cut_simplifier", ptr %this1, i32 0, i32 1
  %m_xites = getelementptr inbounds %"struct.sat::cut_simplifier::stats", ptr %m_stats7, i32 0, i32 8
  %13 = load i32, ptr %m_xites, align 8
  call void @_ZN10statistics6updateEPKcj(ptr noundef nonnull align 8 dereferenceable(16) %12, ptr noundef @.str.20, i32 noundef %13)
  %14 = load ptr, ptr %st.addr, align 8
  %m_stats8 = getelementptr inbounds %"class.sat::cut_simplifier", ptr %this1, i32 0, i32 1
  %m_xxors = getelementptr inbounds %"struct.sat::cut_simplifier::stats", ptr %m_stats8, i32 0, i32 6
  %15 = load i32, ptr %m_xxors, align 8
  call void @_ZN10statistics6updateEPKcj(ptr noundef nonnull align 8 dereferenceable(16) %14, ptr noundef @.str.21, i32 noundef %15)
  %16 = load ptr, ptr %st.addr, align 8
  %m_stats9 = getelementptr inbounds %"class.sat::cut_simplifier", ptr %this1, i32 0, i32 1
  %m_xluts = getelementptr inbounds %"struct.sat::cut_simplifier::stats", ptr %m_stats9, i32 0, i32 9
  %17 = load i32, ptr %m_xluts, align 4
  call void @_ZN10statistics6updateEPKcj(ptr noundef nonnull align 8 dereferenceable(16) %16, ptr noundef @.str.22, i32 noundef %17)
  %18 = load ptr, ptr %st.addr, align 8
  %m_stats10 = getelementptr inbounds %"class.sat::cut_simplifier", ptr %this1, i32 0, i32 1
  %m_num_dont_care_reductions = getelementptr inbounds %"struct.sat::cut_simplifier::stats", ptr %m_stats10, i32 0, i32 11
  %19 = load i32, ptr %m_num_dont_care_reductions, align 4
  call void @_ZN10statistics6updateEPKcj(ptr noundef nonnull align 8 dereferenceable(16) %18, ptr noundef @.str.23, i32 noundef %19)
  ret void
}