; Function Attrs: mustprogress uwtable
define hidden void @_ZNK3sat14cut_simplifier18collect_statisticsER10statistics(ptr nocapture noundef nonnull readonly align 8 dereferenceable(600) %this, ptr noundef nonnull align 8 dereferenceable(16) %st) local_unnamed_addr #3 align 2 {
entry:
  %m_stats = getelementptr inbounds i8, ptr %this, i64 8
  %0 = load i32, ptr %m_stats, align 8
  tail call void @_ZN10statistics6updateEPKcj(ptr noundef nonnull align 8 dereferenceable(16) %st, ptr noundef nonnull @.str.14, i32 noundef %0)
  %m_num_cuts = getelementptr inbounds i8, ptr %this, i64 16
  %1 = load i32, ptr %m_num_cuts, align 8
  tail call void @_ZN10statistics6updateEPKcj(ptr noundef nonnull align 8 dereferenceable(16) %st, ptr noundef nonnull @.str.15, i32 noundef %1)
  %m_num_ands = getelementptr inbounds i8, ptr %this, i64 24
  %2 = load i32, ptr %m_num_ands, align 8
  tail call void @_ZN10statistics6updateEPKcj(ptr noundef nonnull align 8 dereferenceable(16) %st, ptr noundef nonnull @.str.16, i32 noundef %2)
  %m_num_ites = getelementptr inbounds i8, ptr %this, i64 28
  %3 = load i32, ptr %m_num_ites, align 4
  tail call void @_ZN10statistics6updateEPKcj(ptr noundef nonnull align 8 dereferenceable(16) %st, ptr noundef nonnull @.str.17, i32 noundef %3)
  %m_num_xors = getelementptr inbounds i8, ptr %this, i64 20
  %4 = load i32, ptr %m_num_xors, align 4
  tail call void @_ZN10statistics6updateEPKcj(ptr noundef nonnull align 8 dereferenceable(16) %st, ptr noundef nonnull @.str.18, i32 noundef %4)
  %m_xands = getelementptr inbounds i8, ptr %this, i64 36
  %5 = load i32, ptr %m_xands, align 4
  tail call void @_ZN10statistics6updateEPKcj(ptr noundef nonnull align 8 dereferenceable(16) %st, ptr noundef nonnull @.str.19, i32 noundef %5)
  %m_xites = getelementptr inbounds i8, ptr %this, i64 40
  %6 = load i32, ptr %m_xites, align 8
  tail call void @_ZN10statistics6updateEPKcj(ptr noundef nonnull align 8 dereferenceable(16) %st, ptr noundef nonnull @.str.20, i32 noundef %6)
  %m_xxors = getelementptr inbounds i8, ptr %this, i64 32
  %7 = load i32, ptr %m_xxors, align 8
  tail call void @_ZN10statistics6updateEPKcj(ptr noundef nonnull align 8 dereferenceable(16) %st, ptr noundef nonnull @.str.21, i32 noundef %7)
  %m_xluts = getelementptr inbounds i8, ptr %this, i64 44
  %8 = load i32, ptr %m_xluts, align 4
  tail call void @_ZN10statistics6updateEPKcj(ptr noundef nonnull align 8 dereferenceable(16) %st, ptr noundef nonnull @.str.22, i32 noundef %8)
  %m_num_dont_care_reductions = getelementptr inbounds i8, ptr %this, i64 52
  %9 = load i32, ptr %m_num_dont_care_reductions, align 4
  tail call void @_ZN10statistics6updateEPKcj(ptr noundef nonnull align 8 dereferenceable(16) %st, ptr noundef nonnull @.str.23, i32 noundef %9)
  ret void
}